(iprojectdata
Project
p0
(dp1
S'proxy_data'
p2
(imiscdataobjects
ProjectProxyEditingData
p3
(dp4
S'create_rules'
p5
NsS'size'
p6
I1
sS'proxy_mode'
p7
I0
sS'encoding'
p8
I0
sbsS'media_log_groups'
p9
(lp10
sS'next_bin_number'
p11
I4
sS'media_files'
p12
(dp13
I0
(iprojectdata
MediaFile
p14
(dp15
S'has_proxy_file'
p16
I00
sS'info'
p17
(dp18
S'progressive'
p19
I00
sS'vcodec'
p20
S'H.264 / AVC / MPEG-4 AVC / MPEG-4 part 10'
p21
sS'top_field_first'
p22
I00
sS'fps_den'
p23
F1.0
sS'height'
p24
I720
sS'channels'
p25
I1
sS'width'
p26
I1274
sS'length'
p27
I1039
sS'frequency'
p28
I44100
sS'fps_num'
p29
F25.0
sS'acodec'
p30
S'AAC (Advanced Audio Coding)'
p31
ssS'mark_out'
p32
I-1
sS'name'
p33
S'convert-video.mp4'
p34
sS'icon_path'
p35
S'/home/dci-l206/.flowblade/thumbnails/a85f21b5a17c942a42237d03aa1307c2.png'
p36
sS'id'
p37
I0
sS'mark_in'
p38
I-1
sS'length'
p39
I1039
sS'is_proxy_file'
p40
I00
sS'current_frame'
p41
I0
sS'path'
p42
S'/home/dci-l206/Videos/convert-video.mp4'
p43
sS'type'
p44
I1
sS'second_file_path'
p45
NsbssS'c_bin'
p46
(iprojectdata
Bin
p47
(dp48
g33
Vbin_1
p49
sS'file_ids'
p50
(lp51
I0
asbsS'last_save_path'
p52
S'/home/dci-l206/Videos/videoblackNwhite2.mp4'
p53
sS'sequences'
p54
(lp55
(isequence
Sequence
p56
(dp57
S'compositors'
p58
(lp59
sS'master_audio_pan'
p60
I-99
sS'watermark_file_path'
p61
NsS'tracks'
p62
(lp63
ccopy_reg
_reconstructor
p64
(cmlt
Playlist
p65
c__builtin__
object
p66
Ntp67
Rp68
(dp69
S'audio_gain'
p70
F1.0
sS'edit_freedom'
p71
I0
sS'is_sync_track'
p72
I00
sS'height'
p73
I50
sS'clips'
p74
(lp75
g64
(cmlt
Producer
p76
g66
Ntp77
Rp78
(dp79
S'create_data'
p80
(ipatternproducer
BinColorClip
p81
(dp82
g16
I00
sg32
I-1
sg33
S'black_bg'
p83
sS'patter_producer_type'
p84
I1
sS'gdk_color_str'
p85
S'#000000000000'
p86
sg37
I-1
sg38
I-1
sg39
I15000
sg40
I00
sg44
I5
sg45
NsS'icon'
p87
NsbsS'is_blanck_clip'
p88
I00
sS'color'
p89
NsS'clip_in'
p90
I0
sS'sync_data'
p91
NsS'filters'
p92
(lp93
sg42
S''
p94
sS'stream_indexes'
p95
Nsg37
I0
sS'waveform_data'
p96
Nsg33
g83
sS'selected'
p97
I00
sS'mute_filter'
p98
NsS'clip_out'
p99
I1
sS'media_type'
p100
I5
sg44
S'Mlt__Producer'
p101
sbasS'audio_pan'
p102
I-99
sS'mute_state'
p103
I0
sS'active'
p104
I01
sg44
I1
sg37
I0
sbag64
(g65
g66
Ntp105
Rp106
(dp107
g70
F1.0
sg71
I0
sg72
I00
sg73
I25
sg74
(lp108
sg102
I-99
sg103
I1
sg104
I01
sg44
I2
sg37
I1
sbag64
(g65
g66
Ntp109
Rp110
(dp111
g70
F1.0
sg71
I0
sg72
I00
sg73
I25
sg74
(lp112
sg102
I-99
sg103
I1
sg104
I01
sg44
I2
sg37
I2
sbag64
(g65
g66
Ntp113
Rp114
(dp115
g70
F1.0
sg71
I0
sg72
I00
sg73
I25
sg74
(lp116
sg102
I-99
sg103
I1
sg104
I01
sg44
I2
sg37
I3
sbag64
(g65
g66
Ntp117
Rp118
(dp119
g70
F1.0
sg71
I0
sg72
I00
sg73
I25
sg74
(lp120
sg102
I-99
sg103
I1
sg104
I01
sg44
I2
sg37
I4
sbag64
(g65
g66
Ntp121
Rp122
(dp123
g70
F1.0
sg71
I0
sg72
I00
sg73
I50
sg74
(lp124
sg102
I-99
sg103
I0
sg104
I01
sg44
I1
sg37
I5
sbag64
(g65
g66
Ntp125
Rp126
(dp127
g70
F1.0
sg71
I0
sg72
I00
sg73
I25
sg74
(lp128
sg102
I-99
sg103
I0
sg104
I00
sg44
I1
sg37
I6
sbag64
(g65
g66
Ntp129
Rp130
(dp131
g70
F1.0
sg71
I0
sg72
I00
sg73
I25
sg74
(lp132
sg102
I-99
sg103
I0
sg104
I00
sg44
I1
sg37
I7
sbag64
(g65
g66
Ntp133
Rp134
(dp135
g70
F1.0
sg71
I0
sg72
I00
sg73
I25
sg74
(lp136
sg102
I-99
sg103
I0
sg104
I00
sg44
I1
sg37
I8
sbag64
(g65
g66
Ntp137
Rp138
(dp139
g70
F1.0
sg71
I0
sg72
I00
sg73
I25
sg74
(lp140
g64
(g76
g66
Ntp141
Rp142
(dp143
g88
I00
sg32
I1038
sg89
Nsg90
I0
sg91
Nsg92
(lp144
(imltfilters
FilterObject
p145
(dp146
g17
(imltfilters
FilterInfo
p147
(dp148
S'xml'
p149
V<filter id="chroma_hold">\u000a        <name>Chroma Hold</name>\u000a        <group>Color Effect</group>\u000a        <property args="editor=color_select exptype=color displayname=Color" name="key">#000000</property>\u000a        <property args="range_in=0,100 range_out=0,1 displayname=Variance" name="variance">0.01</property>\u000a    </filter>
p150
sS'non_mlt_properties'
p151
(lp152
sS'group'
p153
VColor Effect
p154
sg33
VChroma Hold
p155
sS'property_args'
p156
(dp157
Vvariance
p158
Vrange_in=0,100 range_out=0,1 displayname=Variance
p159
sVkey
p160
Veditor=color_select exptype=color displayname=Color
p161
ssS'mlt_min_version'
p162
g94
sS'properties'
p163
(lp164
(g160
V#000000
p165
I2
tp166
a(g158
V0.01
p167
I1
tp168
asS'extra_editors'
p169
(lp170
sS'multipart_filter'
p171
I00
sS'mlt_service_id'
p172
Vchroma_hold
p173
sS'mlt_drop_version'
p174
g94
sbsg151
(lp175
sS'is_multi_filter'
p176
I00
sg104
I01
sg163
(lp177
(g160
g165
I2
tp178
ag168
asbasg42
g43
sg95
Nsg37
I6
sg96
Nsg33
g34
sg97
I00
sg98
Nsg38
I0
sg99
I1038
sg100
I1
sg44
g101
sbasg102
I-99
sg103
I0
sg104
I00
sg44
I1
sg37
I9
sbag64
(g65
g66
Ntp179
Rp180
(dp181
g70
F1.0
sg71
I0
sg72
I00
sg73
I50
sg74
(lp182
g64
(g76
g66
Ntp183
Rp184
(dp185
g88
I01
sg96
Nsg97
I00
sg95
Nsg89
Nsg98
Nsg91
Nsg92
(lp186
sg99
I1038
sg90
I0
sg44
g101
sg37
I67
sbasg102
I-99
sg103
I0
sg104
I01
sg44
I1
sg37
I10
sbasS'master_audio_gain'
p187
F1.0
sS'seq_len'
p188
I1039
sg33
Vsequence_1
p189
sg39
NsS'markers'
p190
(lp191
sS'proxyclips'
p192
(dp193
sS'first_video_index'
p194
I5
sS'rendered_versions'
p195
(dp196
sS'next_id'
p197
I68
sbasS'profile_desc'
p198
S'DV/DVD PAL'
p199
sS'next_media_file_id'
p200
I1
sS'SAVEFILE_VERSION'
p201
I5
sg33
VvideoblackNwhite2.mp4
p202
sS'media_log'
p203
(lp204
sS'update_media_lengths_on_load'
p205
I00
sS'next_seq_number'
p206
I2
sS'c_seq_index'
p207
I0
sS'events'
p208
(lp209
(iprojectdata
ProjectEvent
p210
(dp211
S'timestamp'
p212
cdatetime
datetime
p213
(S"\x07\xe3\x0b\x1b\n\x0b'\x04P\xb2"
p214
tp215
Rp216
sS'data'
p217
S'/home/dci-l206/videoblackNwhoite.flb'
p218
sS'event_type'
p219
I1
sba(iprojectdata
ProjectEvent
p220
(dp221
g212
g213
(S'\x07\xe3\x0b\x1b\n\r\r\x03\x1b\xc4'
p222
tp223
Rp224
sg217
(VvideoblackNwhite.flb
p225
S'/home/dci-l206/Videos/videoblackNwhite.flb'
p226
tp227
sg219
I3
sba(iprojectdata
ProjectEvent
p228
(dp229
g212
g213
(S'\x07\xe3\x0b\x1b\n\x0e8\r\xba\x9f'
p230
tp231
Rp232
sg217
(VvideoblackNwhite.mp4
p233
S'/home/dci-l206/Videos/videoblackNwhite.mp4'
p234
tp235
sg219
I3
sba(iprojectdata
ProjectEvent
p236
(dp237
g212
g213
(S'\x07\xe3\x0b\x1b\n.0\t\xe1\\'
p238
tp239
Rp240
sg217
(VvideoblackNwhite2.mp4
p241
S'/home/dci-l206/Videos/videoblackNwhite2.mp4'
p242
tp243
sg219
I3
sbasS'bins'
p244
(lp245
g47
a(iprojectdata
Bin
p246
(dp247
g33
Vbin_3
p248
sg50
(lp249
sbasb.